; Function Attrs: mustprogress uwtable
define noundef nonnull ptr @_ZNK5faiss16IndexIVFFastScan14get_CodePackerEv(ptr noundef nonnull readonly align 8 captures(none) dereferenceable(344) %0) unnamed_addr #2 align 2 personality ptr @__gxx_personality_v0 {
  %2 = tail call noalias noundef nonnull dereferenceable(40) ptr @_Znwm(i64 noundef 40) #40
  %3 = getelementptr inbounds nuw i8, ptr %0, i64 272
  %4 = load i64, ptr %3, align 8, !tbaa !59
  %5 = getelementptr inbounds nuw i8, ptr %0, i64 268
  %6 = load i32, ptr %5, align 4, !tbaa !62
  %7 = sext i32 %6 to i64
  invoke void @_ZN5faiss13CodePackerPQ4C1Emm(ptr noundef nonnull align 8 dereferenceable(40) %2, i64 noundef %4, i64 noundef %7)
          to label %8 unwind label %9

8:                                                ; preds = %1
  ret ptr %2

9:                                                ; preds = %1
  %10 = landingpad { ptr, i32 }
          cleanup
  tail call void @_ZdlPvm(ptr noundef nonnull %2, i64 noundef 40) #39
  resume { ptr, i32 } %10
}